target datalayout = "e-m:e-p270:32:32-p271:32:32-p272:64:64-i64:64-i128:128-f80:128-n8:16:32:64-S128"
target triple = "x86_64-pc-linux-gnu"

@stbhw__black = global [3 x i8] zeroinitializer, align 1

; Function Attrs: nounwind uwtable
define void @stbhw__stbhw__set_pixel_whiten(ptr noundef %0, i32 noundef %1, i32 noundef %2, i32 noundef %3, ptr noundef %4) #0 {
  %6 = alloca ptr, align 8
  %7 = alloca i32, align 4
  %8 = alloca i32, align 4
  %9 = alloca i32, align 4
  %10 = alloca ptr, align 8
  %11 = alloca [3 x i8], align 1
  %12 = alloca i32, align 4
  store ptr %0, ptr %6, align 8, !tbaa !3
  store i32 %1, ptr %7, align 4, !tbaa !10
  store i32 %2, ptr %8, align 4, !tbaa !10
  store i32 %3, ptr %9, align 4, !tbaa !10
  store ptr %4, ptr %10, align 8, !tbaa !3
  call void @llvm.lifetime.start.p0(i64 3, ptr %11) #6
  call void @llvm.lifetime.start.p0(i64 4, ptr %12) #6
  store i32 0, ptr %12, align 4, !tbaa !10
  br label %13

13:                                               ; preds = %30, %5
  %14 = load i32, ptr %12, align 4, !tbaa !10
  %15 = icmp slt i32 %14, 3
  br i1 %15, label %16, label %33

16:                                               ; preds = %13
  %17 = load ptr, ptr %10, align 8, !tbaa !3
  %18 = load i32, ptr %12, align 4, !tbaa !10
  %19 = sext i32 %18 to i64
  %20 = getelementptr inbounds i8, ptr %17, i64 %19
  %21 = load i8, ptr %20, align 1, !tbaa !64
  %22 = zext i8 %21 to i32
  %23 = mul nsw i32 %22, 2
  %24 = add nsw i32 %23, 255
  %25 = sdiv i32 %24, 3
  %26 = trunc i32 %25 to i8
  %27 = load i32, ptr %12, align 4, !tbaa !10
  %28 = sext i32 %27 to i64
  %29 = getelementptr inbounds [3 x i8], ptr %11, i64 0, i64 %28
  store i8 %26, ptr %29, align 1, !tbaa !64
  br label %30

30:                                               ; preds = %16
  %31 = load i32, ptr %12, align 4, !tbaa !10
  %32 = add nsw i32 %31, 1
  store i32 %32, ptr %12, align 4, !tbaa !10
  br label %13, !llvm.loop !106

33:                                               ; preds = %13
  %34 = load ptr, ptr %6, align 8, !tbaa !3
  %35 = load i32, ptr %9, align 4, !tbaa !10
  %36 = load i32, ptr %7, align 4, !tbaa !10
  %37 = mul nsw i32 %35, %36
  %38 = sext i32 %37 to i64
  %39 = getelementptr inbounds i8, ptr %34, i64 %38
  %40 = load i32, ptr %8, align 4, !tbaa !10
  %41 = mul nsw i32 %40, 3
  %42 = sext i32 %41 to i64
  %43 = getelementptr inbounds i8, ptr %39, i64 %42
  %44 = getelementptr inbounds [3 x i8], ptr %11, i64 0, i64 0
  call void @llvm.memcpy.p0.p0.i64(ptr align 1 %43, ptr align 1 %44, i64 3, i1 false)
  call void @llvm.lifetime.end.p0(i64 4, ptr %12) #6
  call void @llvm.lifetime.end.p0(i64 3, ptr %11) #6
  ret void
}

; Function Attrs: nounwind uwtable
define void @stbhw__set_pixel(ptr noundef %0, i32 noundef %1, i32 noundef %2, i32 noundef %3, ptr noundef %4) #0 {
  %6 = alloca ptr, align 8
  %7 = alloca i32, align 4
  %8 = alloca i32, align 4
  %9 = alloca i32, align 4
  %10 = alloca ptr, align 8
  store ptr %0, ptr %6, align 8, !tbaa !3
  store i32 %1, ptr %7, align 4, !tbaa !10
  store i32 %2, ptr %8, align 4, !tbaa !10
  store i32 %3, ptr %9, align 4, !tbaa !10
  store ptr %4, ptr %10, align 8, !tbaa !3
  %11 = load ptr, ptr %6, align 8, !tbaa !3
  %12 = load i32, ptr %9, align 4, !tbaa !10
  %13 = load i32, ptr %7, align 4, !tbaa !10
  %14 = mul nsw i32 %12, %13
  %15 = sext i32 %14 to i64
  %16 = getelementptr inbounds i8, ptr %11, i64 %15
  %17 = load i32, ptr %8, align 4, !tbaa !10
  %18 = mul nsw i32 %17, 3
  %19 = sext i32 %18 to i64
  %20 = getelementptr inbounds i8, ptr %16, i64 %19
  %21 = load ptr, ptr %10, align 8, !tbaa !3
  call void @llvm.memcpy.p0.p0.i64(ptr align 1 %20, ptr align 1 %21, i64 3, i1 false)
  ret void
}

; Function Attrs: nounwind uwtable
define void @stbhw__draw_vline(ptr noundef %0, i32 noundef %1, i32 noundef %2, i32 noundef %3, i32 noundef %4, i32 noundef %5, i32 noundef %6) #0 {
  %8 = alloca ptr, align 8
  %9 = alloca i32, align 4
  %10 = alloca i32, align 4
  %11 = alloca i32, align 4
  %12 = alloca i32, align 4
  %13 = alloca i32, align 4
  %14 = alloca i32, align 4
  %15 = alloca i32, align 4
  %16 = alloca i32, align 4
  %17 = alloca i32, align 4
  store ptr %0, ptr %8, align 8, !tbaa !3
  store i32 %1, ptr %9, align 4, !tbaa !10
  store i32 %2, ptr %10, align 4, !tbaa !10
  store i32 %3, ptr %11, align 4, !tbaa !10
  store i32 %4, ptr %12, align 4, !tbaa !10
  store i32 %5, ptr %13, align 4, !tbaa !10
  store i32 %6, ptr %14, align 4, !tbaa !10
  call void @llvm.lifetime.start.p0(i64 4, ptr %15) #6
  call void @llvm.lifetime.start.p0(i64 4, ptr %16) #6
  %18 = load i32, ptr %13, align 4, !tbaa !10
  %19 = mul nsw i32 %18, 6
  %20 = sdiv i32 %19, 16
  store i32 %20, ptr %16, align 4, !tbaa !10
  call void @llvm.lifetime.start.p0(i64 4, ptr %17) #6
  %21 = load i32, ptr %13, align 4, !tbaa !10
  %22 = mul nsw i32 %21, 10
  %23 = sdiv i32 %22, 16
  store i32 %23, ptr %17, align 4, !tbaa !10
  store i32 0, ptr %15, align 4, !tbaa !10
  br label %24

24:                                               ; preds = %35, %7
  %25 = load i32, ptr %15, align 4, !tbaa !10
  %26 = load i32, ptr %13, align 4, !tbaa !10
  %27 = icmp slt i32 %25, %26
  br i1 %27, label %28, label %38

28:                                               ; preds = %24
  %29 = load ptr, ptr %8, align 8, !tbaa !3
  %30 = load i32, ptr %9, align 4, !tbaa !10
  %31 = load i32, ptr %10, align 4, !tbaa !10
  %32 = load i32, ptr %11, align 4, !tbaa !10
  %33 = load i32, ptr %15, align 4, !tbaa !10
  %34 = add nsw i32 %32, %33
  call void @stbhw__set_pixel(ptr noundef %29, i32 noundef %30, i32 noundef %31, i32 noundef %34, ptr noundef @stbhw__black)
  br label %35

35:                                               ; preds = %28
  %36 = load i32, ptr %15, align 4, !tbaa !10
  %37 = add nsw i32 %36, 1
  store i32 %37, ptr %15, align 4, !tbaa !10
  br label %24, !llvm.loop !109

38:                                               ; preds = %24
  %39 = load i32, ptr %17, align 4, !tbaa !10
  %40 = load i32, ptr %16, align 4, !tbaa !10
  %41 = sub nsw i32 %39, %40
  %42 = icmp slt i32 %41, 2
  br i1 %42, label %43, label %56

43:                                               ; preds = %38
  %44 = load i32, ptr %13, align 4, !tbaa !10
  %45 = sdiv i32 %44, 2
  %46 = sub nsw i32 %45, 1
  store i32 %46, ptr %16, align 4, !tbaa !10
  %47 = load i32, ptr %16, align 4, !tbaa !10
  %48 = add nsw i32 %47, 2
  store i32 %48, ptr %17, align 4, !tbaa !10
  %49 = load i32, ptr %13, align 4, !tbaa !10
  %50 = and i32 %49, 1
  %51 = icmp ne i32 %50, 0
  br i1 %51, label %52, label %55

52:                                               ; preds = %43
  %53 = load i32, ptr %17, align 4, !tbaa !10
  %54 = add nsw i32 %53, 1
  store i32 %54, ptr %17, align 4, !tbaa !10
  br label %55

55:                                               ; preds = %52, %43
  br label %56

56:                                               ; preds = %55, %38
  %57 = load i32, ptr %16, align 4, !tbaa !10
  store i32 %57, ptr %15, align 4, !tbaa !10
  br label %58

58:                                               ; preds = %76, %56
  %59 = load i32, ptr %15, align 4, !tbaa !10
  %60 = load i32, ptr %17, align 4, !tbaa !10
  %61 = icmp slt i32 %59, %60
  br i1 %61, label %62, label %79

62:                                               ; preds = %58
  %63 = load ptr, ptr %8, align 8, !tbaa !3
  %64 = load i32, ptr %9, align 4, !tbaa !10
  %65 = load i32, ptr %10, align 4, !tbaa !10
  %66 = load i32, ptr %11, align 4, !tbaa !10
  %67 = load i32, ptr %15, align 4, !tbaa !10
  %68 = add nsw i32 %66, %67
  %69 = load i32, ptr %14, align 4, !tbaa !10
  %70 = sext i32 %69 to i64
  %71 = getelementptr inbounds [7 x [8 x [3 x i8]]], ptr @stbhw__color, i64 0, i64 %70
  %72 = load i32, ptr %12, align 4, !tbaa !10
  %73 = sext i32 %72 to i64
  %74 = getelementptr inbounds [8 x [3 x i8]], ptr %71, i64 0, i64 %73
  %75 = getelementptr inbounds [3 x i8], ptr %74, i64 0, i64 0
  call void @stbhw__stbhw__set_pixel_whiten(ptr noundef %63, i32 noundef %64, i32 noundef %65, i32 noundef %68, ptr noundef %75)
  br label %76

76:                                               ; preds = %62
  %77 = load i32, ptr %15, align 4, !tbaa !10
  %78 = add nsw i32 %77, 1
  store i32 %78, ptr %15, align 4, !tbaa !10
  br label %58, !llvm.loop !110

79:                                               ; preds = %58
  call void @llvm.lifetime.end.p0(i64 4, ptr %17) #6
  call void @llvm.lifetime.end.p0(i64 4, ptr %16) #6
  call void @llvm.lifetime.end.p0(i64 4, ptr %15) #6
  ret void
}