; Function Attrs: nofree norecurse nosync nounwind memory(readwrite, inaccessiblemem: none) uwtable
define void @stbhw__draw_vline(ptr noundef writeonly captures(none) %0, i32 noundef %1, i32 noundef %2, i32 noundef %3, i32 noundef %4, i32 noundef %5, i32 noundef %6) local_unnamed_addr #13 {
  %8 = alloca [3 x i8], align 1
  %9 = mul nsw i32 %5, 6
  %10 = sdiv i32 %9, 16
  %11 = mul nsw i32 %5, 10
  %12 = sdiv i32 %11, 16
  %13 = icmp sgt i32 %5, 0
  br i1 %13, label %.lr.ph, label %._crit_edge

.lr.ph:                                           ; preds = %7
  %14 = mul nsw i32 %2, 3
  %15 = sext i32 %14 to i64
  %invariant.gep = getelementptr i8, ptr %0, i64 %15
  %16 = sext i32 %3 to i64
  %17 = sext i32 %1 to i64
  %wide.trip.count = zext nneg i32 %5 to i64
  br label %18

18:                                               ; preds = %.lr.ph, %18
  %indvars.iv = phi i64 [ 0, %.lr.ph ], [ %indvars.iv.next, %18 ]
  %19 = add nsw i64 %indvars.iv, %16
  %20 = mul nsw i64 %19, %17
  %gep = getelementptr i8, ptr %invariant.gep, i64 %20
  tail call void @llvm.memcpy.p0.p0.i64(ptr noundef nonnull align 1 dereferenceable(3) %gep, ptr noundef nonnull align 1 dereferenceable(3) @stbhw__black, i64 3, i1 false)
  %indvars.iv.next = add nuw nsw i64 %indvars.iv, 1
  %exitcond.not = icmp eq i64 %indvars.iv.next, %wide.trip.count
  br i1 %exitcond.not, label %._crit_edge, label %18, !llvm.loop !105

._crit_edge:                                      ; preds = %18, %7
  %21 = sub nsw i32 %12, %10
  %22 = icmp slt i32 %21, 2
  br i1 %22, label %23, label %27

23:                                               ; preds = %._crit_edge
  %24 = sdiv i32 %5, 2
  %25 = add nsw i32 %24, -1
  %26 = and i32 %5, 1
  %spec.select.v = add nuw nsw i32 %26, 1
  %spec.select = add nsw i32 %spec.select.v, %24
  br label %27

27:                                               ; preds = %23, %._crit_edge
  %.026 = phi i32 [ %10, %._crit_edge ], [ %25, %23 ]
  %.0 = phi i32 [ %12, %._crit_edge ], [ %spec.select, %23 ]
  %28 = icmp slt i32 %.026, %.0
  br i1 %28, label %.lr.ph32, label %._crit_edge33

.lr.ph32:                                         ; preds = %27
  %29 = sext i32 %6 to i64
  %30 = sext i32 %4 to i64
  %31 = getelementptr inbounds [7 x [8 x [3 x i8]]], ptr @stbhw__color, i64 0, i64 %29, i64 %30
  %32 = mul nsw i32 %2, 3
  %33 = sext i32 %32 to i64
  %invariant.gep34 = getelementptr i8, ptr %0, i64 %33
  %34 = sext i32 %.026 to i64
  %35 = sext i32 %3 to i64
  %36 = sext i32 %1 to i64
  %wide.trip.count40 = sext i32 %.0 to i64
  br label %37

37:                                               ; preds = %.lr.ph32, %stbhw__stbhw__set_pixel_whiten.exit
  %indvars.iv37 = phi i64 [ %34, %.lr.ph32 ], [ %indvars.iv.next38, %stbhw__stbhw__set_pixel_whiten.exit ]
  call void @llvm.lifetime.start.p0(i64 3, ptr nonnull %8) #15
  br label %38

38:                                               ; preds = %38, %37
  %indvars.iv.i = phi i64 [ 0, %37 ], [ %indvars.iv.next.i, %38 ]
  %39 = getelementptr inbounds nuw i8, ptr %31, i64 %indvars.iv.i
  %40 = load i8, ptr %39, align 1, !tbaa !58
  %41 = zext i8 %40 to i16
  %42 = shl nuw nsw i16 %41, 1
  %43 = add nuw nsw i16 %42, 255
  %44 = udiv i16 %43, 3
  %45 = trunc nuw i16 %44 to i8
  %46 = getelementptr inbounds nuw [3 x i8], ptr %8, i64 0, i64 %indvars.iv.i
  store i8 %45, ptr %46, align 1, !tbaa !58
  %indvars.iv.next.i = add nuw nsw i64 %indvars.iv.i, 1
  %exitcond.not.i = icmp eq i64 %indvars.iv.next.i, 3
  br i1 %exitcond.not.i, label %stbhw__stbhw__set_pixel_whiten.exit, label %38, !llvm.loop !102

stbhw__stbhw__set_pixel_whiten.exit:              ; preds = %38
  %47 = add nsw i64 %indvars.iv37, %35
  %48 = mul nsw i64 %47, %36
  %gep35 = getelementptr i8, ptr %invariant.gep34, i64 %48
  call void @llvm.memcpy.p0.p0.i64(ptr noundef nonnull align 1 dereferenceable(3) %gep35, ptr noundef nonnull align 1 dereferenceable(3) %8, i64 3, i1 false)
  call void @llvm.lifetime.end.p0(i64 3, ptr nonnull %8) #15
  %indvars.iv.next38 = add nsw i64 %indvars.iv37, 1
  %exitcond41.not = icmp eq i64 %indvars.iv.next38, %wide.trip.count40
  br i1 %exitcond41.not, label %._crit_edge33, label %37, !llvm.loop !106

._crit_edge33:                                    ; preds = %stbhw__stbhw__set_pixel_whiten.exit, %27
  ret void
}